target datalayout = "e-m:e-p270:32:32-p271:32:32-p272:64:64-i64:64-i128:128-f80:128-n8:16:32:64-S128"
target triple = "x86_64-unknown-linux-gnu"

%"class.QuantLib::DiscretizedAsset" = type { ptr, double, double, double, %"class.QuantLib::Array", %"class.boost::shared_ptr" }
%"class.QuantLib::Array" = type { %"class.std::unique_ptr", i64 }
%"class.std::unique_ptr" = type { %"struct.std::__uniq_ptr_data" }
%"struct.std::__uniq_ptr_data" = type { %"class.std::__uniq_ptr_impl" }
%"class.std::__uniq_ptr_impl" = type { %"class.std::tuple" }
%"class.std::tuple" = type { %"struct.std::_Tuple_impl" }
%"struct.std::_Tuple_impl" = type { %"struct.std::_Head_base.1" }
%"struct.std::_Head_base.1" = type { ptr }
%"class.boost::shared_ptr" = type { ptr, %"class.boost::detail::shared_count" }
%"class.boost::detail::shared_count" = type { ptr }
%"class.QuantLib::DayCounter" = type { %"class.boost::shared_ptr.17" }
%"class.boost::shared_ptr.17" = type { ptr, %"class.boost::detail::shared_count" }
%"class.QuantLib::Date" = type { i64 }
%"class.std::vector.34" = type { %"struct.std::_Vector_base.35" }
%"struct.std::_Vector_base.35" = type { %"struct.std::_Vector_base<QuantLib::DiscretizedAsset::CouponAdjustment, std::allocator<QuantLib::DiscretizedAsset::CouponAdjustment>>::_Vector_impl" }
%"struct.std::_Vector_base<QuantLib::DiscretizedAsset::CouponAdjustment, std::allocator<QuantLib::DiscretizedAsset::CouponAdjustment>>::_Vector_impl" = type { %"struct.std::_Vector_base<QuantLib::DiscretizedAsset::CouponAdjustment, std::allocator<QuantLib::DiscretizedAsset::CouponAdjustment>>::_Vector_impl_data" }
%"struct.std::_Vector_base<QuantLib::DiscretizedAsset::CouponAdjustment, std::allocator<QuantLib::DiscretizedAsset::CouponAdjustment>>::_Vector_impl_data" = type { ptr, ptr, ptr }
%"class.QuantLib::DiscretizedCallableFixedRateBond" = type { %"class.QuantLib::DiscretizedAsset", %"class.QuantLib::CallableBond::arguments", double, %"class.std::vector", %"class.std::vector.34", %"class.std::vector", %"class.std::vector" }
%"class.QuantLib::CallableBond::arguments" = type { %"class.QuantLib::Bond::arguments", %"class.std::vector.24", %"class.std::vector", double, double, %"class.QuantLib::Date", %"class.QuantLib::DayCounter", i32, %"class.std::vector.29", %"class.std::vector", %"class.std::vector.24", double }
%"class.QuantLib::Bond::arguments" = type { %"class.QuantLib::PricingEngine::arguments", %"class.QuantLib::Date", %"class.std::vector.19", %"class.QuantLib::Calendar" }
%"class.QuantLib::PricingEngine::arguments" = type { ptr }
%"class.std::vector.19" = type { %"struct.std::_Vector_base.20" }
%"struct.std::_Vector_base.20" = type { %"struct.std::_Vector_base<boost::shared_ptr<QuantLib::CashFlow>, std::allocator<boost::shared_ptr<QuantLib::CashFlow>>>::_Vector_impl" }
%"struct.std::_Vector_base<boost::shared_ptr<QuantLib::CashFlow>, std::allocator<boost::shared_ptr<QuantLib::CashFlow>>>::_Vector_impl" = type { %"struct.std::_Vector_base<boost::shared_ptr<QuantLib::CashFlow>, std::allocator<boost::shared_ptr<QuantLib::CashFlow>>>::_Vector_impl_data" }
%"struct.std::_Vector_base<boost::shared_ptr<QuantLib::CashFlow>, std::allocator<boost::shared_ptr<QuantLib::CashFlow>>>::_Vector_impl_data" = type { ptr, ptr, ptr }
%"class.QuantLib::Calendar" = type { %"class.boost::shared_ptr.18" }
%"class.boost::shared_ptr.18" = type { ptr, %"class.boost::detail::shared_count" }
%"class.std::vector.29" = type { %"struct.std::_Vector_base.30" }
%"struct.std::_Vector_base.30" = type { %"struct.std::_Vector_base<boost::shared_ptr<QuantLib::Callability>, std::allocator<boost::shared_ptr<QuantLib::Callability>>>::_Vector_impl" }
%"struct.std::_Vector_base<boost::shared_ptr<QuantLib::Callability>, std::allocator<boost::shared_ptr<QuantLib::Callability>>>::_Vector_impl" = type { %"struct.std::_Vector_base<boost::shared_ptr<QuantLib::Callability>, std::allocator<boost::shared_ptr<QuantLib::Callability>>>::_Vector_impl_data" }
%"struct.std::_Vector_base<boost::shared_ptr<QuantLib::Callability>, std::allocator<boost::shared_ptr<QuantLib::Callability>>>::_Vector_impl_data" = type { ptr, ptr, ptr }
%"class.std::vector.24" = type { %"struct.std::_Vector_base.25" }
%"struct.std::_Vector_base.25" = type { %"struct.std::_Vector_base<QuantLib::Date, std::allocator<QuantLib::Date>>::_Vector_impl" }
%"struct.std::_Vector_base<QuantLib::Date, std::allocator<QuantLib::Date>>::_Vector_impl" = type { %"struct.std::_Vector_base<QuantLib::Date, std::allocator<QuantLib::Date>>::_Vector_impl_data" }
%"struct.std::_Vector_base<QuantLib::Date, std::allocator<QuantLib::Date>>::_Vector_impl_data" = type { ptr, ptr, ptr }
%"class.std::vector" = type { %"struct.std::_Vector_base" }
%"struct.std::_Vector_base" = type { %"struct.std::_Vector_base<double, std::allocator<double>>::_Vector_impl" }
%"struct.std::_Vector_base<double, std::allocator<double>>::_Vector_impl" = type { %"struct.std::_Vector_base<double, std::allocator<double>>::_Vector_impl_data" }
%"struct.std::_Vector_base<double, std::allocator<double>>::_Vector_impl_data" = type { ptr, ptr, ptr }
%class.anon.54 = type { double }

; Function Attrs: mustprogress nounwind uwtable
define linkonce_odr noundef nonnull align 8 dereferenceable(8) ptr @_ZNSt10_Head_baseILm0EPdLb0EE7_M_headERKS1_(ptr noundef nonnull align 8 dereferenceable(8) %__b) #0 comdat align 2 {
entry:
  %__b.addr = alloca ptr, align 8
  store ptr %__b, ptr %__b.addr, align 8, !tbaa !3
  %0 = load ptr, ptr %__b.addr, align 8, !tbaa !3
  %_M_head_impl = getelementptr inbounds nuw %"struct.std::_Head_base.1", ptr %0, i32 0, i32 0
  ret ptr %_M_head_impl
}

; Function Attrs: mustprogress nounwind uwtable
define linkonce_odr noundef nonnull align 8 dereferenceable(8) ptr @_ZNSt11_Tuple_implILm0EJPdSt14default_deleteIA_dEEE7_M_headERKS4_(ptr noundef nonnull align 8 dereferenceable(8) %__t) #0 comdat align 2 {
entry:
  %__t.addr = alloca ptr, align 8
  store ptr %__t, ptr %__t.addr, align 8, !tbaa !3
  %0 = load ptr, ptr %__t.addr, align 8, !tbaa !3
  %call = call noundef nonnull align 8 dereferenceable(8) ptr @_ZNSt10_Head_baseILm0EPdLb0EE7_M_headERKS1_(ptr noundef nonnull align 8 dereferenceable(8) %0) #17
  ret ptr %call
}

; Function Attrs: mustprogress nounwind uwtable
define linkonce_odr noundef nonnull align 8 dereferenceable(8) ptr @_ZSt12__get_helperILm0EPdJSt14default_deleteIA_dEEERKT0_RKSt11_Tuple_implIXT_EJS4_DpT1_EE(ptr noundef nonnull align 8 dereferenceable(8) %__t) #0 comdat {
entry:
  %__t.addr = alloca ptr, align 8
  store ptr %__t, ptr %__t.addr, align 8, !tbaa !3
  %0 = load ptr, ptr %__t.addr, align 8, !tbaa !3
  %call = call noundef nonnull align 8 dereferenceable(8) ptr @_ZNSt11_Tuple_implILm0EJPdSt14default_deleteIA_dEEE7_M_headERKS4_(ptr noundef nonnull align 8 dereferenceable(8) %0) #17
  ret ptr %call
}

; Function Attrs: mustprogress nounwind uwtable
define linkonce_odr noundef nonnull align 8 dereferenceable(8) ptr @_ZSt3getILm0EJPdSt14default_deleteIA_dEEERKNSt13tuple_elementIXT_ESt5tupleIJDpT0_EEE4typeERKS8_(ptr noundef nonnull align 8 dereferenceable(8) %__t) #0 comdat {
entry:
  %__t.addr = alloca ptr, align 8
  store ptr %__t, ptr %__t.addr, align 8, !tbaa !3
  %0 = load ptr, ptr %__t.addr, align 8, !tbaa !3
  %call = call noundef nonnull align 8 dereferenceable(8) ptr @_ZSt12__get_helperILm0EPdJSt14default_deleteIA_dEEERKT0_RKSt11_Tuple_implIXT_EJS4_DpT1_EE(ptr noundef nonnull align 8 dereferenceable(8) %0) #17
  ret ptr %call
}

; Function Attrs: mustprogress nounwind uwtable
define linkonce_odr noundef ptr @_ZNKSt15__uniq_ptr_implIdSt14default_deleteIA_dEE6_M_ptrEv(ptr noundef nonnull align 8 dereferenceable(8) %this) #0 comdat align 2 {
entry:
  %this.addr = alloca ptr, align 8
  store ptr %this, ptr %this.addr, align 8, !tbaa !3
  %this1 = load ptr, ptr %this.addr, align 8
  %_M_t = getelementptr inbounds nuw %"class.std::__uniq_ptr_impl", ptr %this1, i32 0, i32 0
  %call = call noundef nonnull align 8 dereferenceable(8) ptr @_ZSt3getILm0EJPdSt14default_deleteIA_dEEERKNSt13tuple_elementIXT_ESt5tupleIJDpT0_EEE4typeERKS8_(ptr noundef nonnull align 8 dereferenceable(8) %_M_t) #17
  %0 = load ptr, ptr %call, align 8, !tbaa !3
  ret ptr %0
}

; Function Attrs: inlinehint mustprogress nounwind uwtable
define linkonce_odr noundef double @_ZZN8QuantLib5ArraypLEdENKUldE_clEd(ptr noundef nonnull align 8 dereferenceable(8) %this, double noundef %y) #5 comdat align 2 {
entry:
  %this.addr = alloca ptr, align 8
  %y.addr = alloca double, align 8
  store ptr %this, ptr %this.addr, align 8, !tbaa !3
  store double %y, ptr %y.addr, align 8, !tbaa !11
  %this1 = load ptr, ptr %this.addr, align 8
  %0 = load double, ptr %y.addr, align 8, !tbaa !11
  %1 = getelementptr inbounds nuw %class.anon.54, ptr %this1, i32 0, i32 0
  %2 = load double, ptr %1, align 8, !tbaa !102
  %add = fadd double %0, %2
  ret double %add
}

; Function Attrs: mustprogress nounwind uwtable
define linkonce_odr noundef ptr @_ZNKSt10unique_ptrIA_dSt14default_deleteIS0_EE3getEv(ptr noundef nonnull align 8 dereferenceable(8) %this) #0 comdat align 2 {
entry:
  %this.addr = alloca ptr, align 8
  store ptr %this, ptr %this.addr, align 8, !tbaa !3
  %this1 = load ptr, ptr %this.addr, align 8
  %_M_t = getelementptr inbounds nuw %"class.std::unique_ptr", ptr %this1, i32 0, i32 0
  %call = call noundef ptr @_ZNKSt15__uniq_ptr_implIdSt14default_deleteIA_dEE6_M_ptrEv(ptr noundef nonnull align 8 dereferenceable(8) %_M_t) #17
  ret ptr %call
}

; Function Attrs: mustprogress uwtable
define linkonce_odr noundef ptr @_ZSt9transformIPdS0_ZN8QuantLib5ArraypLEdEUldE_ET0_T_S5_S4_T1_(ptr noundef %__first, ptr noundef %__last, ptr noundef %__result, double %__unary_op.coerce) #2 comdat {
entry:
  %__unary_op = alloca %class.anon.54, align 8
  %__first.addr = alloca ptr, align 8
  %__last.addr = alloca ptr, align 8
  %__result.addr = alloca ptr, align 8
  %coerce.dive = getelementptr inbounds nuw %class.anon.54, ptr %__unary_op, i32 0, i32 0
  store double %__unary_op.coerce, ptr %coerce.dive, align 8
  store ptr %__first, ptr %__first.addr, align 8, !tbaa !3
  store ptr %__last, ptr %__last.addr, align 8, !tbaa !3
  store ptr %__result, ptr %__result.addr, align 8, !tbaa !3
  br label %for.cond

for.cond:                                         ; preds = %for.inc, %entry
  %0 = load ptr, ptr %__first.addr, align 8, !tbaa !3
  %1 = load ptr, ptr %__last.addr, align 8, !tbaa !3
  %cmp = icmp ne ptr %0, %1
  br i1 %cmp, label %for.body, label %for.end

for.body:                                         ; preds = %for.cond
  %2 = load ptr, ptr %__first.addr, align 8, !tbaa !3
  %3 = load double, ptr %2, align 8, !tbaa !11
  %call = call noundef double @_ZZN8QuantLib5ArraypLEdENKUldE_clEd(ptr noundef nonnull align 8 dereferenceable(8) %__unary_op, double noundef %3)
  %4 = load ptr, ptr %__result.addr, align 8, !tbaa !3
  store double %call, ptr %4, align 8, !tbaa !11
  br label %for.inc

for.inc:                                          ; preds = %for.body
  %5 = load ptr, ptr %__first.addr, align 8, !tbaa !3
  %incdec.ptr = getelementptr inbounds nuw double, ptr %5, i32 1
  store ptr %incdec.ptr, ptr %__first.addr, align 8, !tbaa !3
  %6 = load ptr, ptr %__result.addr, align 8, !tbaa !3
  %incdec.ptr1 = getelementptr inbounds nuw double, ptr %6, i32 1
  store ptr %incdec.ptr1, ptr %__result.addr, align 8, !tbaa !3
  br label %for.cond, !llvm.loop !135

for.end:                                          ; preds = %for.cond
  %7 = load ptr, ptr %__result.addr, align 8, !tbaa !3
  ret ptr %7
}

; Function Attrs: inlinehint mustprogress nounwind uwtable
define linkonce_odr noundef ptr @_ZN8QuantLib5Array3endEv(ptr noundef nonnull align 8 dereferenceable(16) %this) #5 comdat align 2 {
entry:
  %this.addr = alloca ptr, align 8
  store ptr %this, ptr %this.addr, align 8, !tbaa !3
  %this1 = load ptr, ptr %this.addr, align 8
  %data_ = getelementptr inbounds nuw %"class.QuantLib::Array", ptr %this1, i32 0, i32 0
  %call = call noundef ptr @_ZNKSt10unique_ptrIA_dSt14default_deleteIS0_EE3getEv(ptr noundef nonnull align 8 dereferenceable(8) %data_) #17
  %n_ = getelementptr inbounds nuw %"class.QuantLib::Array", ptr %this1, i32 0, i32 1
  %0 = load i64, ptr %n_, align 8, !tbaa !13
  %add.ptr = getelementptr inbounds nuw double, ptr %call, i64 %0
  ret ptr %add.ptr
}

; Function Attrs: inlinehint mustprogress nounwind uwtable
define linkonce_odr noundef ptr @_ZN8QuantLib5Array5beginEv(ptr noundef nonnull align 8 dereferenceable(16) %this) #5 comdat align 2 {
entry:
  %this.addr = alloca ptr, align 8
  store ptr %this, ptr %this.addr, align 8, !tbaa !3
  %this1 = load ptr, ptr %this.addr, align 8
  %data_ = getelementptr inbounds nuw %"class.QuantLib::Array", ptr %this1, i32 0, i32 0
  %call = call noundef ptr @_ZNKSt10unique_ptrIA_dSt14default_deleteIS0_EE3getEv(ptr noundef nonnull align 8 dereferenceable(8) %data_) #17
  ret ptr %call
}

; Function Attrs: inlinehint mustprogress uwtable
define linkonce_odr noundef nonnull align 8 dereferenceable(16) ptr @_ZN8QuantLib5ArraypLEd(ptr noundef nonnull align 8 dereferenceable(16) %this, double noundef %x) #3 comdat align 2 {
entry:
  %this.addr = alloca ptr, align 8
  %x.addr = alloca double, align 8
  %agg.tmp = alloca %class.anon.54, align 8
  store ptr %this, ptr %this.addr, align 8, !tbaa !3
  store double %x, ptr %x.addr, align 8, !tbaa !11
  %this1 = load ptr, ptr %this.addr, align 8
  %call = call noundef ptr @_ZN8QuantLib5Array5beginEv(ptr noundef nonnull align 8 dereferenceable(16) %this1)
  %call2 = call noundef ptr @_ZN8QuantLib5Array3endEv(ptr noundef nonnull align 8 dereferenceable(16) %this1)
  %call3 = call noundef ptr @_ZN8QuantLib5Array5beginEv(ptr noundef nonnull align 8 dereferenceable(16) %this1)
  %0 = getelementptr inbounds nuw %class.anon.54, ptr %agg.tmp, i32 0, i32 0
  %1 = load double, ptr %x.addr, align 8, !tbaa !11
  store double %1, ptr %0, align 8, !tbaa !102
  %coerce.dive = getelementptr inbounds nuw %class.anon.54, ptr %agg.tmp, i32 0, i32 0
  %2 = load double, ptr %coerce.dive, align 8
  %call4 = call noundef ptr @_ZSt9transformIPdS0_ZN8QuantLib5ArraypLEdEUldE_ET0_T_S5_S4_T1_(ptr noundef %call, ptr noundef %call2, ptr noundef %call3, double %2)
  ret ptr %this1
}

; Function Attrs: mustprogress nounwind uwtable
define linkonce_odr noundef nonnull align 8 dereferenceable(8) ptr @_ZNSt6vectorIdSaIdEEixEm(ptr noundef nonnull align 8 dereferenceable(24) %this, i64 noundef %__n) #0 comdat align 2 {
entry:
  %this.addr = alloca ptr, align 8
  %__n.addr = alloca i64, align 8
  store ptr %this, ptr %this.addr, align 8, !tbaa !3
  store i64 %__n, ptr %__n.addr, align 8, !tbaa !9
  %this1 = load ptr, ptr %this.addr, align 8
  %_M_impl = getelementptr inbounds nuw %"struct.std::_Vector_base", ptr %this1, i32 0, i32 0
  %_M_start = getelementptr inbounds nuw %"struct.std::_Vector_base<double, std::allocator<double>>::_Vector_impl_data", ptr %_M_impl, i32 0, i32 0
  %0 = load ptr, ptr %_M_start, align 8, !tbaa !70
  %1 = load i64, ptr %__n.addr, align 8, !tbaa !9
  %add.ptr = getelementptr inbounds nuw double, ptr %0, i64 %1
  ret ptr %add.ptr
}

; Function Attrs: mustprogress uwtable
define void @_ZN8QuantLib32DiscretizedCallableFixedRateBond9addCouponEm(ptr noundef nonnull align 8 dereferenceable(400) %this, i64 noundef %i) #2 align 2 {
entry:
  %this.addr = alloca ptr, align 8
  %i.addr = alloca i64, align 8
  store ptr %this, ptr %this.addr, align 8, !tbaa !3
  store i64 %i, ptr %i.addr, align 8, !tbaa !9
  %this1 = load ptr, ptr %this.addr, align 8
  %arguments_ = getelementptr inbounds nuw %"class.QuantLib::DiscretizedCallableFixedRateBond", ptr %this1, i32 0, i32 1
  %couponAmounts = getelementptr inbounds nuw %"class.QuantLib::CallableBond::arguments", ptr %arguments_, i32 0, i32 2
  %0 = load i64, ptr %i.addr, align 8, !tbaa !9
  %call = call noundef nonnull align 8 dereferenceable(8) ptr @_ZNSt6vectorIdSaIdEEixEm(ptr noundef nonnull align 8 dereferenceable(24) %couponAmounts, i64 noundef %0) #17
  %1 = load double, ptr %call, align 8, !tbaa !11
  %values_ = getelementptr inbounds nuw %"class.QuantLib::DiscretizedAsset", ptr %this1, i32 0, i32 4
  %call2 = call noundef nonnull align 8 dereferenceable(16) ptr @_ZN8QuantLib5ArraypLEd(ptr noundef nonnull align 8 dereferenceable(16) %values_, double noundef %1)
  ret void
}